; Function Attrs: mustprogress nofree nounwind willreturn memory(argmem: read) uwtable
define dso_local noundef zeroext i1 @_ZN19cmCTestBuildHandler19IsLaunchedErrorFileEPKc(ptr nocapture noundef nonnull readnone align 8 dereferenceable(1104) %0, ptr nocapture noundef readonly %1) local_unnamed_addr #6 align 2 personality ptr @__gxx_personality_v0 {
  %3 = tail call noundef i64 @strlen(ptr noundef nonnull dereferenceable(1) %1) #21
  %.sroa.speculated.i.i.i.i = tail call i64 @llvm.umin.i64(i64 %3, i64 6)
  %4 = icmp eq i64 %3, 0
  br i1 %4, label %_Z18cmHasLiteralSuffixILm5EEbSt17basic_string_viewIcSt11char_traitsIcEERAT__Kc.exit, label %_ZNSt11char_traitsIcE7compareEPKcS2_m.exit.i.i.i.i

_ZNSt11char_traitsIcE7compareEPKcS2_m.exit.i.i.i.i: ; preds = %2
  %bcmp.i.i = tail call i32 @bcmp(ptr %1, ptr nonnull @.str.66, i64 %.sroa.speculated.i.i.i.i)
  %5 = icmp eq i32 %bcmp.i.i, 0
  br i1 %5, label %_Z18cmHasLiteralPrefixILm7EEbSt17basic_string_viewIcSt11char_traitsIcEERAT__Kc.exit, label %_Z18cmHasLiteralSuffixILm5EEbSt17basic_string_viewIcSt11char_traitsIcEERAT__Kc.exit

_Z18cmHasLiteralPrefixILm7EEbSt17basic_string_viewIcSt11char_traitsIcEERAT__Kc.exit: ; preds = %_ZNSt11char_traitsIcE7compareEPKcS2_m.exit.i.i.i.i
  %6 = add nuw nsw i64 %.sroa.speculated.i.i.i.i, 4294967290
  %7 = and i64 %6, 4294967295
  %8 = icmp ne i64 %7, 0
  %.not.i.i = icmp ult i64 %3, 4
  %or.cond = or i1 %.not.i.i, %8
  br i1 %or.cond, label %_Z18cmHasLiteralSuffixILm5EEbSt17basic_string_viewIcSt11char_traitsIcEERAT__Kc.exit, label %_ZNSt11char_traitsIcE7compareEPKcS2_m.exit.i.i.i.i2

_ZNSt11char_traitsIcE7compareEPKcS2_m.exit.i.i.i.i2: ; preds = %_Z18cmHasLiteralPrefixILm7EEbSt17basic_string_viewIcSt11char_traitsIcEERAT__Kc.exit
  %9 = getelementptr i8, ptr %1, i64 %3
  %10 = getelementptr i8, ptr %9, i64 -4
  %bcmp.i.i3 = tail call i32 @bcmp(ptr noundef nonnull dereferenceable(4) %10, ptr noundef nonnull dereferenceable(4) @.str.67, i64 4)
  %11 = icmp eq i32 %bcmp.i.i3, 0
  br label %_Z18cmHasLiteralSuffixILm5EEbSt17basic_string_viewIcSt11char_traitsIcEERAT__Kc.exit

_Z18cmHasLiteralSuffixILm5EEbSt17basic_string_viewIcSt11char_traitsIcEERAT__Kc.exit: ; preds = %2, %_ZNSt11char_traitsIcE7compareEPKcS2_m.exit.i.i.i.i, %_ZNSt11char_traitsIcE7compareEPKcS2_m.exit.i.i.i.i2, %_Z18cmHasLiteralPrefixILm7EEbSt17basic_string_viewIcSt11char_traitsIcEERAT__Kc.exit
  %12 = phi i1 [ false, %_Z18cmHasLiteralPrefixILm7EEbSt17basic_string_viewIcSt11char_traitsIcEERAT__Kc.exit ], [ %11, %_ZNSt11char_traitsIcE7compareEPKcS2_m.exit.i.i.i.i2 ], [ false, %_ZNSt11char_traitsIcE7compareEPKcS2_m.exit.i.i.i.i ], [ false, %2 ]
  ret i1 %12
}